; Function Attrs: mustprogress uwtable
define noundef nonnull align 8 dereferenceable(48) ptr @_ZNK8proxygen11HTTPMessage14getQueryParamsB5cxx11Ev(ptr noundef nonnull align 8 dereferenceable(616) %this) local_unnamed_addr #2 align 2 {
entry:
  %parsedQueryParams_ = getelementptr inbounds i8, ptr %this, i64 610
  %bf.load = load i8, ptr %parsedQueryParams_, align 2
  %0 = and i8 %bf.load, 2
  %bf.cast.not = icmp eq i8 %0, 0
  br i1 %bf.cast.not, label %if.then, label %if.end

if.then:                                          ; preds = %entry
  tail call void @_ZNK8proxygen11HTTPMessage16parseQueryParamsEv(ptr noundef nonnull align 8 dereferenceable(616) %this)
  br label %if.end

if.end:                                           ; preds = %if.then, %entry
  %queryParams_ = getelementptr inbounds i8, ptr %this, i64 432
  ret ptr %queryParams_
}